ARM GAS  C:\Users\ADMINI~1\AppData\Local\Temp\cc6jA825.s 			page 1


   1              		.cpu cortex-m4
   2              		.eabi_attribute 27, 1
   3              		.eabi_attribute 28, 1
   4              		.eabi_attribute 20, 1
   5              		.eabi_attribute 21, 1
   6              		.eabi_attribute 23, 3
   7              		.eabi_attribute 24, 1
   8              		.eabi_attribute 25, 1
   9              		.eabi_attribute 26, 1
  10              		.eabi_attribute 30, 1
  11              		.eabi_attribute 34, 1
  12              		.eabi_attribute 18, 4
  13              		.file	"tim.c"
  14              		.text
  15              	.Ltext0:
  16              		.cfi_sections	.debug_frame
  17              		.section	.text.MX_TIM1_Init,"ax",%progbits
  18              		.align	1
  19              		.global	MX_TIM1_Init
  20              		.arch armv7e-m
  21              		.syntax unified
  22              		.thumb
  23              		.thumb_func
  24              		.fpu fpv4-sp-d16
  26              	MX_TIM1_Init:
  27              	.LFB130:
  28              		.file 1 "Src/tim.c"
   1:Src/tim.c     **** /**
   2:Src/tim.c     ****   ******************************************************************************
   3:Src/tim.c     ****   * File Name          : TIM.c
   4:Src/tim.c     ****   * Description        : This file provides code for the configuration
   5:Src/tim.c     ****   *                      of the TIM instances.
   6:Src/tim.c     ****   ******************************************************************************
   7:Src/tim.c     ****   * @attention
   8:Src/tim.c     ****   *
   9:Src/tim.c     ****   * <h2><center>&copy; Copyright (c) 2020 STMicroelectronics.
  10:Src/tim.c     ****   * All rights reserved.</center></h2>
  11:Src/tim.c     ****   *
  12:Src/tim.c     ****   * This software component is licensed by ST under Ultimate Liberty license
  13:Src/tim.c     ****   * SLA0044, the "License"; You may not use this file except in compliance with
  14:Src/tim.c     ****   * the License. You may obtain a copy of the License at:
  15:Src/tim.c     ****   *                             www.st.com/SLA0044
  16:Src/tim.c     ****   *
  17:Src/tim.c     ****   ******************************************************************************
  18:Src/tim.c     ****   */
  19:Src/tim.c     **** 
  20:Src/tim.c     **** /* Includes ------------------------------------------------------------------*/
  21:Src/tim.c     **** #include "tim.h"
  22:Src/tim.c     **** 
  23:Src/tim.c     **** /* USER CODE BEGIN 0 */
  24:Src/tim.c     **** 
  25:Src/tim.c     **** /* USER CODE END 0 */
  26:Src/tim.c     **** 
  27:Src/tim.c     **** TIM_HandleTypeDef htim1;
  28:Src/tim.c     **** 
  29:Src/tim.c     **** /* TIM1 init function */
  30:Src/tim.c     **** void MX_TIM1_Init(void)
ARM GAS  C:\Users\ADMINI~1\AppData\Local\Temp\cc6jA825.s 			page 2


  31:Src/tim.c     **** {
  29              		.loc 1 31 1 view -0
  30              		.cfi_startproc
  31              		@ args = 0, pretend = 0, frame = 32
  32              		@ frame_needed = 0, uses_anonymous_args = 0
  33 0000 00B5     		push	{lr}
  34              	.LCFI0:
  35              		.cfi_def_cfa_offset 4
  36              		.cfi_offset 14, -4
  37 0002 89B0     		sub	sp, sp, #36
  38              	.LCFI1:
  39              		.cfi_def_cfa_offset 40
  32:Src/tim.c     ****   TIM_ClockConfigTypeDef sClockSourceConfig = {0};
  40              		.loc 1 32 3 view .LVU1
  41              		.loc 1 32 26 is_stmt 0 view .LVU2
  42 0004 0023     		movs	r3, #0
  43 0006 0493     		str	r3, [sp, #16]
  44 0008 0593     		str	r3, [sp, #20]
  45 000a 0693     		str	r3, [sp, #24]
  46 000c 0793     		str	r3, [sp, #28]
  33:Src/tim.c     ****   TIM_MasterConfigTypeDef sMasterConfig = {0};
  47              		.loc 1 33 3 is_stmt 1 view .LVU3
  48              		.loc 1 33 27 is_stmt 0 view .LVU4
  49 000e 0193     		str	r3, [sp, #4]
  50 0010 0293     		str	r3, [sp, #8]
  51 0012 0393     		str	r3, [sp, #12]
  34:Src/tim.c     **** 
  35:Src/tim.c     ****   htim1.Instance = TIM1;
  52              		.loc 1 35 3 is_stmt 1 view .LVU5
  53              		.loc 1 35 18 is_stmt 0 view .LVU6
  54 0014 1548     		ldr	r0, .L9
  55 0016 164A     		ldr	r2, .L9+4
  56 0018 0260     		str	r2, [r0]
  36:Src/tim.c     ****   htim1.Init.Prescaler = 200-1;
  57              		.loc 1 36 3 is_stmt 1 view .LVU7
  58              		.loc 1 36 24 is_stmt 0 view .LVU8
  59 001a C722     		movs	r2, #199
  60 001c 4260     		str	r2, [r0, #4]
  37:Src/tim.c     ****   htim1.Init.CounterMode = TIM_COUNTERMODE_UP;
  61              		.loc 1 37 3 is_stmt 1 view .LVU9
  62              		.loc 1 37 26 is_stmt 0 view .LVU10
  63 001e 8360     		str	r3, [r0, #8]
  38:Src/tim.c     ****   htim1.Init.Period = 200-1;
  64              		.loc 1 38 3 is_stmt 1 view .LVU11
  65              		.loc 1 38 21 is_stmt 0 view .LVU12
  66 0020 C260     		str	r2, [r0, #12]
  39:Src/tim.c     ****   htim1.Init.ClockDivision = TIM_CLOCKDIVISION_DIV1;
  67              		.loc 1 39 3 is_stmt 1 view .LVU13
  68              		.loc 1 39 28 is_stmt 0 view .LVU14
  69 0022 0361     		str	r3, [r0, #16]
  40:Src/tim.c     ****   htim1.Init.RepetitionCounter = 100-1;
  70              		.loc 1 40 3 is_stmt 1 view .LVU15
  71              		.loc 1 40 32 is_stmt 0 view .LVU16
  72 0024 6322     		movs	r2, #99
  73 0026 4261     		str	r2, [r0, #20]
  41:Src/tim.c     ****   htim1.Init.AutoReloadPreload = TIM_AUTORELOAD_PRELOAD_DISABLE;
  74              		.loc 1 41 3 is_stmt 1 view .LVU17
ARM GAS  C:\Users\ADMINI~1\AppData\Local\Temp\cc6jA825.s 			page 3


  75              		.loc 1 41 32 is_stmt 0 view .LVU18
  76 0028 8361     		str	r3, [r0, #24]
  42:Src/tim.c     ****   if (HAL_TIM_Base_Init(&htim1) != HAL_OK)
  77              		.loc 1 42 3 is_stmt 1 view .LVU19
  78              		.loc 1 42 7 is_stmt 0 view .LVU20
  79 002a FFF7FEFF 		bl	HAL_TIM_Base_Init
  80              	.LVL0:
  81              		.loc 1 42 6 view .LVU21
  82 002e 98B9     		cbnz	r0, .L6
  83              	.L2:
  43:Src/tim.c     ****   {
  44:Src/tim.c     ****     Error_Handler();
  45:Src/tim.c     ****   }
  46:Src/tim.c     ****   sClockSourceConfig.ClockSource = TIM_CLOCKSOURCE_INTERNAL;
  84              		.loc 1 46 3 is_stmt 1 view .LVU22
  85              		.loc 1 46 34 is_stmt 0 view .LVU23
  86 0030 4FF48053 		mov	r3, #4096
  87 0034 0493     		str	r3, [sp, #16]
  47:Src/tim.c     ****   if (HAL_TIM_ConfigClockSource(&htim1, &sClockSourceConfig) != HAL_OK)
  88              		.loc 1 47 3 is_stmt 1 view .LVU24
  89              		.loc 1 47 7 is_stmt 0 view .LVU25
  90 0036 04A9     		add	r1, sp, #16
  91 0038 0C48     		ldr	r0, .L9
  92 003a FFF7FEFF 		bl	HAL_TIM_ConfigClockSource
  93              	.LVL1:
  94              		.loc 1 47 6 view .LVU26
  95 003e 70B9     		cbnz	r0, .L7
  96              	.L3:
  48:Src/tim.c     ****   {
  49:Src/tim.c     ****     Error_Handler();
  50:Src/tim.c     ****   }
  51:Src/tim.c     ****   sMasterConfig.MasterOutputTrigger = TIM_TRGO_RESET;
  97              		.loc 1 51 3 is_stmt 1 view .LVU27
  98              		.loc 1 51 37 is_stmt 0 view .LVU28
  99 0040 0023     		movs	r3, #0
 100 0042 0193     		str	r3, [sp, #4]
  52:Src/tim.c     ****   sMasterConfig.MasterOutputTrigger2 = TIM_TRGO2_RESET;
 101              		.loc 1 52 3 is_stmt 1 view .LVU29
 102              		.loc 1 52 38 is_stmt 0 view .LVU30
 103 0044 0293     		str	r3, [sp, #8]
  53:Src/tim.c     ****   sMasterConfig.MasterSlaveMode = TIM_MASTERSLAVEMODE_DISABLE;
 104              		.loc 1 53 3 is_stmt 1 view .LVU31
 105              		.loc 1 53 33 is_stmt 0 view .LVU32
 106 0046 0393     		str	r3, [sp, #12]
  54:Src/tim.c     ****   if (HAL_TIMEx_MasterConfigSynchronization(&htim1, &sMasterConfig) != HAL_OK)
 107              		.loc 1 54 3 is_stmt 1 view .LVU33
 108              		.loc 1 54 7 is_stmt 0 view .LVU34
 109 0048 01A9     		add	r1, sp, #4
 110 004a 0848     		ldr	r0, .L9
 111 004c FFF7FEFF 		bl	HAL_TIMEx_MasterConfigSynchronization
 112              	.LVL2:
 113              		.loc 1 54 6 view .LVU35
 114 0050 40B9     		cbnz	r0, .L8
 115              	.L1:
  55:Src/tim.c     ****   {
  56:Src/tim.c     ****     Error_Handler();
  57:Src/tim.c     ****   }
ARM GAS  C:\Users\ADMINI~1\AppData\Local\Temp\cc6jA825.s 			page 4


  58:Src/tim.c     **** 
  59:Src/tim.c     **** }
 116              		.loc 1 59 1 view .LVU36
 117 0052 09B0     		add	sp, sp, #36
 118              	.LCFI2:
 119              		.cfi_remember_state
 120              		.cfi_def_cfa_offset 4
 121              		@ sp needed
 122 0054 5DF804FB 		ldr	pc, [sp], #4
 123              	.L6:
 124              	.LCFI3:
 125              		.cfi_restore_state
  44:Src/tim.c     ****   }
 126              		.loc 1 44 5 is_stmt 1 view .LVU37
 127 0058 FFF7FEFF 		bl	Error_Handler
 128              	.LVL3:
 129 005c E8E7     		b	.L2
 130              	.L7:
  49:Src/tim.c     ****   }
 131              		.loc 1 49 5 view .LVU38
 132 005e FFF7FEFF 		bl	Error_Handler
 133              	.LVL4:
 134 0062 EDE7     		b	.L3
 135              	.L8:
  56:Src/tim.c     ****   }
 136              		.loc 1 56 5 view .LVU39
 137 0064 FFF7FEFF 		bl	Error_Handler
 138              	.LVL5:
 139              		.loc 1 59 1 is_stmt 0 view .LVU40
 140 0068 F3E7     		b	.L1
 141              	.L10:
 142 006a 00BF     		.align	2
 143              	.L9:
 144 006c 00000000 		.word	htim1
 145 0070 002C0140 		.word	1073818624
 146              		.cfi_endproc
 147              	.LFE130:
 149              		.section	.text.HAL_TIM_Base_MspInit,"ax",%progbits
 150              		.align	1
 151              		.global	HAL_TIM_Base_MspInit
 152              		.syntax unified
 153              		.thumb
 154              		.thumb_func
 155              		.fpu fpv4-sp-d16
 157              	HAL_TIM_Base_MspInit:
 158              	.LVL6:
 159              	.LFB131:
  60:Src/tim.c     **** 
  61:Src/tim.c     **** void HAL_TIM_Base_MspInit(TIM_HandleTypeDef* tim_baseHandle)
  62:Src/tim.c     **** {
 160              		.loc 1 62 1 is_stmt 1 view -0
 161              		.cfi_startproc
 162              		@ args = 0, pretend = 0, frame = 8
 163              		@ frame_needed = 0, uses_anonymous_args = 0
  63:Src/tim.c     **** 
  64:Src/tim.c     ****   if(tim_baseHandle->Instance==TIM1)
 164              		.loc 1 64 3 view .LVU42
ARM GAS  C:\Users\ADMINI~1\AppData\Local\Temp\cc6jA825.s 			page 5


 165              		.loc 1 64 20 is_stmt 0 view .LVU43
 166 0000 0268     		ldr	r2, [r0]
 167              		.loc 1 64 5 view .LVU44
 168 0002 164B     		ldr	r3, .L18
 169 0004 9A42     		cmp	r2, r3
 170 0006 00D0     		beq	.L17
 171 0008 7047     		bx	lr
 172              	.L17:
  62:Src/tim.c     **** 
 173              		.loc 1 62 1 view .LVU45
 174 000a 00B5     		push	{lr}
 175              	.LCFI4:
 176              		.cfi_def_cfa_offset 4
 177              		.cfi_offset 14, -4
 178 000c 83B0     		sub	sp, sp, #12
 179              	.LCFI5:
 180              		.cfi_def_cfa_offset 16
  65:Src/tim.c     ****   {
  66:Src/tim.c     ****   /* USER CODE BEGIN TIM1_MspInit 0 */
  67:Src/tim.c     **** 
  68:Src/tim.c     ****   /* USER CODE END TIM1_MspInit 0 */
  69:Src/tim.c     ****     /* TIM1 clock enable */
  70:Src/tim.c     ****     __HAL_RCC_TIM1_CLK_ENABLE();
 181              		.loc 1 70 5 is_stmt 1 view .LVU46
 182              	.LBB2:
 183              		.loc 1 70 5 view .LVU47
 184              		.loc 1 70 5 view .LVU48
 185 000e 03F56443 		add	r3, r3, #58368
 186 0012 1A6E     		ldr	r2, [r3, #96]
 187 0014 42F40062 		orr	r2, r2, #2048
 188 0018 1A66     		str	r2, [r3, #96]
 189              		.loc 1 70 5 view .LVU49
 190 001a 1B6E     		ldr	r3, [r3, #96]
 191 001c 03F40063 		and	r3, r3, #2048
 192 0020 0193     		str	r3, [sp, #4]
 193              		.loc 1 70 5 view .LVU50
 194 0022 019B     		ldr	r3, [sp, #4]
 195              	.LBE2:
 196              		.loc 1 70 5 view .LVU51
  71:Src/tim.c     **** 
  72:Src/tim.c     ****     /* TIM1 interrupt Init */
  73:Src/tim.c     ****     HAL_NVIC_SetPriority(TIM1_BRK_TIM15_IRQn, 0, 0);
 197              		.loc 1 73 5 view .LVU52
 198 0024 0022     		movs	r2, #0
 199 0026 1146     		mov	r1, r2
 200 0028 1820     		movs	r0, #24
 201              	.LVL7:
 202              		.loc 1 73 5 is_stmt 0 view .LVU53
 203 002a FFF7FEFF 		bl	HAL_NVIC_SetPriority
 204              	.LVL8:
  74:Src/tim.c     ****     HAL_NVIC_EnableIRQ(TIM1_BRK_TIM15_IRQn);
 205              		.loc 1 74 5 is_stmt 1 view .LVU54
 206 002e 1820     		movs	r0, #24
 207 0030 FFF7FEFF 		bl	HAL_NVIC_EnableIRQ
 208              	.LVL9:
  75:Src/tim.c     ****     HAL_NVIC_SetPriority(TIM1_UP_TIM16_IRQn, 0, 0);
 209              		.loc 1 75 5 view .LVU55
ARM GAS  C:\Users\ADMINI~1\AppData\Local\Temp\cc6jA825.s 			page 6


 210 0034 0022     		movs	r2, #0
 211 0036 1146     		mov	r1, r2
 212 0038 1920     		movs	r0, #25
 213 003a FFF7FEFF 		bl	HAL_NVIC_SetPriority
 214              	.LVL10:
  76:Src/tim.c     ****     HAL_NVIC_EnableIRQ(TIM1_UP_TIM16_IRQn);
 215              		.loc 1 76 5 view .LVU56
 216 003e 1920     		movs	r0, #25
 217 0040 FFF7FEFF 		bl	HAL_NVIC_EnableIRQ
 218              	.LVL11:
  77:Src/tim.c     ****     HAL_NVIC_SetPriority(TIM1_TRG_COM_IRQn, 0, 0);
 219              		.loc 1 77 5 view .LVU57
 220 0044 0022     		movs	r2, #0
 221 0046 1146     		mov	r1, r2
 222 0048 1A20     		movs	r0, #26
 223 004a FFF7FEFF 		bl	HAL_NVIC_SetPriority
 224              	.LVL12:
  78:Src/tim.c     ****     HAL_NVIC_EnableIRQ(TIM1_TRG_COM_IRQn);
 225              		.loc 1 78 5 view .LVU58
 226 004e 1A20     		movs	r0, #26
 227 0050 FFF7FEFF 		bl	HAL_NVIC_EnableIRQ
 228              	.LVL13:
  79:Src/tim.c     ****   /* USER CODE BEGIN TIM1_MspInit 1 */
  80:Src/tim.c     **** 
  81:Src/tim.c     ****   /* USER CODE END TIM1_MspInit 1 */
  82:Src/tim.c     ****   }
  83:Src/tim.c     **** }
 229              		.loc 1 83 1 is_stmt 0 view .LVU59
 230 0054 03B0     		add	sp, sp, #12
 231              	.LCFI6:
 232              		.cfi_def_cfa_offset 4
 233              		@ sp needed
 234 0056 5DF804FB 		ldr	pc, [sp], #4
 235              	.L19:
 236 005a 00BF     		.align	2
 237              	.L18:
 238 005c 002C0140 		.word	1073818624
 239              		.cfi_endproc
 240              	.LFE131:
 242              		.section	.text.HAL_TIM_Base_MspDeInit,"ax",%progbits
 243              		.align	1
 244              		.global	HAL_TIM_Base_MspDeInit
 245              		.syntax unified
 246              		.thumb
 247              		.thumb_func
 248              		.fpu fpv4-sp-d16
 250              	HAL_TIM_Base_MspDeInit:
 251              	.LVL14:
 252              	.LFB132:
  84:Src/tim.c     **** 
  85:Src/tim.c     **** void HAL_TIM_Base_MspDeInit(TIM_HandleTypeDef* tim_baseHandle)
  86:Src/tim.c     **** {
 253              		.loc 1 86 1 is_stmt 1 view -0
 254              		.cfi_startproc
 255              		@ args = 0, pretend = 0, frame = 0
 256              		@ frame_needed = 0, uses_anonymous_args = 0
 257              		.loc 1 86 1 is_stmt 0 view .LVU61
ARM GAS  C:\Users\ADMINI~1\AppData\Local\Temp\cc6jA825.s 			page 7


 258 0000 08B5     		push	{r3, lr}
 259              	.LCFI7:
 260              		.cfi_def_cfa_offset 8
 261              		.cfi_offset 3, -8
 262              		.cfi_offset 14, -4
  87:Src/tim.c     **** 
  88:Src/tim.c     ****   if(tim_baseHandle->Instance==TIM1)
 263              		.loc 1 88 3 is_stmt 1 view .LVU62
 264              		.loc 1 88 20 is_stmt 0 view .LVU63
 265 0002 0268     		ldr	r2, [r0]
 266              		.loc 1 88 5 view .LVU64
 267 0004 094B     		ldr	r3, .L24
 268 0006 9A42     		cmp	r2, r3
 269 0008 00D0     		beq	.L23
 270              	.LVL15:
 271              	.L20:
  89:Src/tim.c     ****   {
  90:Src/tim.c     ****   /* USER CODE BEGIN TIM1_MspDeInit 0 */
  91:Src/tim.c     **** 
  92:Src/tim.c     ****   /* USER CODE END TIM1_MspDeInit 0 */
  93:Src/tim.c     ****     /* Peripheral clock disable */
  94:Src/tim.c     ****     __HAL_RCC_TIM1_CLK_DISABLE();
  95:Src/tim.c     **** 
  96:Src/tim.c     ****     /* TIM1 interrupt Deinit */
  97:Src/tim.c     ****     HAL_NVIC_DisableIRQ(TIM1_BRK_TIM15_IRQn);
  98:Src/tim.c     ****     HAL_NVIC_DisableIRQ(TIM1_UP_TIM16_IRQn);
  99:Src/tim.c     ****     HAL_NVIC_DisableIRQ(TIM1_TRG_COM_IRQn);
 100:Src/tim.c     ****   /* USER CODE BEGIN TIM1_MspDeInit 1 */
 101:Src/tim.c     **** 
 102:Src/tim.c     ****   /* USER CODE END TIM1_MspDeInit 1 */
 103:Src/tim.c     ****   }
 104:Src/tim.c     **** } 
 272              		.loc 1 104 1 view .LVU65
 273 000a 08BD     		pop	{r3, pc}
 274              	.LVL16:
 275              	.L23:
  94:Src/tim.c     **** 
 276              		.loc 1 94 5 is_stmt 1 view .LVU66
 277 000c 084A     		ldr	r2, .L24+4
 278 000e 136E     		ldr	r3, [r2, #96]
 279 0010 23F40063 		bic	r3, r3, #2048
 280 0014 1366     		str	r3, [r2, #96]
  97:Src/tim.c     ****     HAL_NVIC_DisableIRQ(TIM1_UP_TIM16_IRQn);
 281              		.loc 1 97 5 view .LVU67
 282 0016 1820     		movs	r0, #24
 283              	.LVL17:
  97:Src/tim.c     ****     HAL_NVIC_DisableIRQ(TIM1_UP_TIM16_IRQn);
 284              		.loc 1 97 5 is_stmt 0 view .LVU68
 285 0018 FFF7FEFF 		bl	HAL_NVIC_DisableIRQ
 286              	.LVL18:
  98:Src/tim.c     ****     HAL_NVIC_DisableIRQ(TIM1_TRG_COM_IRQn);
 287              		.loc 1 98 5 is_stmt 1 view .LVU69
 288 001c 1920     		movs	r0, #25
 289 001e FFF7FEFF 		bl	HAL_NVIC_DisableIRQ
 290              	.LVL19:
  99:Src/tim.c     ****   /* USER CODE BEGIN TIM1_MspDeInit 1 */
 291              		.loc 1 99 5 view .LVU70
ARM GAS  C:\Users\ADMINI~1\AppData\Local\Temp\cc6jA825.s 			page 8


 292 0022 1A20     		movs	r0, #26
 293 0024 FFF7FEFF 		bl	HAL_NVIC_DisableIRQ
 294              	.LVL20:
 295              		.loc 1 104 1 is_stmt 0 view .LVU71
 296 0028 EFE7     		b	.L20
 297              	.L25:
 298 002a 00BF     		.align	2
 299              	.L24:
 300 002c 002C0140 		.word	1073818624
 301 0030 00100240 		.word	1073876992
 302              		.cfi_endproc
 303              	.LFE132:
 305              		.comm	htim1,64,4
 306              		.text
 307              	.Letext0:
 308              		.file 2 "c:\\program files (x86)\\gnu arm embedded toolchain\\9 2020-q2-update\\arm-none-eabi\\inc
 309              		.file 3 "c:\\program files (x86)\\gnu arm embedded toolchain\\9 2020-q2-update\\arm-none-eabi\\inc
 310              		.file 4 "Drivers/CMSIS/Include/core_cm4.h"
 311              		.file 5 "Drivers/CMSIS/Device/ST/STM32L4xx/Include/system_stm32l4xx.h"
 312              		.file 6 "Drivers/CMSIS/Device/ST/STM32L4xx/Include/stm32l412xx.h"
 313              		.file 7 "Drivers/STM32L4xx_HAL_Driver/Inc/stm32l4xx_hal_def.h"
 314              		.file 8 "Drivers/STM32L4xx_HAL_Driver/Inc/stm32l4xx_hal_dma.h"
 315              		.file 9 "Drivers/STM32L4xx_HAL_Driver/Inc/stm32l4xx_hal_flash.h"
 316              		.file 10 "Drivers/STM32L4xx_HAL_Driver/Inc/stm32l4xx_hal_tim.h"
 317              		.file 11 "Drivers/STM32L4xx_HAL_Driver/Inc/stm32l4xx_hal.h"
 318              		.file 12 "Inc/tim.h"
 319              		.file 13 "Drivers/STM32L4xx_HAL_Driver/Inc/stm32l4xx_hal_cortex.h"
 320              		.file 14 "Drivers/STM32L4xx_HAL_Driver/Inc/stm32l4xx_hal_tim_ex.h"
 321              		.file 15 "Inc/main.h"
ARM GAS  C:\Users\ADMINI~1\AppData\Local\Temp\cc6jA825.s 			page 9

